target datalayout = "e-m:e-p270:32:32-p271:32:32-p272:64:64-i64:64-i128:128-f80:128-n8:16:32:64-S128"
target triple = "x86_64-pc-linux-gnu"

@H5P_CLS_DATASET_XFER_ID_g = external global i64, align 8
@H5_libinit_g = external global i8, align 1
@H5_libterm_g = external global i8, align 1
@.str.1 = private unnamed_addr constant [101 x i8] c"generated/home/dtcxzyw/WorkSpace/Projects/compilers/llvm-opt-benchmark/bench/hdf5/hdf5/src/H5Pdxpl.c\00", align 1
@H5E_FUNC_g = external global i64, align 8
@H5E_CANTINIT_g = external global i64, align 8
@.str.2 = private unnamed_addr constant [30 x i8] c"library initialization failed\00", align 1
@H5E_CANTSET_g = external global i64, align 8
@.str.3 = private unnamed_addr constant [22 x i8] c"can't set API context\00", align 1
@H5E_BADVALUE_g = external global i64, align 8
@H5E_ID_g = external global i64, align 8
@H5E_BADID_g = external global i64, align 8
@.str.5 = private unnamed_addr constant [25 x i8] c"can't find object for ID\00", align 1
@.str.6 = private unnamed_addr constant [15 x i8] c"data_transform\00", align 1
@H5E_PLIST_g = external global i64, align 8
@H5E_CANTGET_g = external global i64, align 8
@.str.7 = private unnamed_addr constant [40 x i8] c"error getting data transform expression\00", align 1
@__func__.H5Pget_data_transform = private unnamed_addr constant [22 x i8] c"H5Pget_data_transform\00", align 1
@.str.11 = private unnamed_addr constant [32 x i8] c"data transform has not been set\00", align 1
@.str.12 = private unnamed_addr constant [40 x i8] c"failed to retrieve transform expression\00", align 1

; Function Attrs: nounwind uwtable
define i64 @H5Pget_data_transform(i64 noundef %0, ptr noundef %1, i64 noundef %2) #0 {
  %4 = alloca i64, align 8
  %5 = alloca ptr, align 8
  %6 = alloca i64, align 8
  %7 = alloca ptr, align 8
  %8 = alloca ptr, align 8
  %9 = alloca i64, align 8
  %10 = alloca ptr, align 8
  %11 = alloca i64, align 8
  %12 = alloca i8, align 1
  %13 = alloca i8, align 1
  store i64 %0, ptr %4, align 8
  store ptr %1, ptr %5, align 8
  store i64 %2, ptr %6, align 8
  store ptr null, ptr %8, align 8
  store i8 0, ptr %12, align 1
  store i8 0, ptr %13, align 1
  %14 = load i8, ptr @H5_libinit_g, align 1
  %15 = trunc i8 %14 to i1
  br i1 %15, label %20, label %16

16:                                               ; preds = %3
  %17 = load i8, ptr @H5_libterm_g, align 1
  %18 = trunc i8 %17 to i1
  %19 = xor i1 %18, true
  br label %20

20:                                               ; preds = %16, %3
  %21 = phi i1 [ false, %3 ], [ %19, %16 ]
  %22 = xor i1 %21, true
  %23 = xor i1 %22, true
  %24 = zext i1 %23 to i32
  %25 = sext i32 %24 to i64
  %26 = icmp ne i64 %25, 0
  br i1 %26, label %27, label %51

27:                                               ; preds = %20
  %28 = call i32 @H5_init_library()
  %29 = icmp slt i32 %28, 0
  %30 = xor i1 %29, true
  %31 = xor i1 %30, true
  %32 = zext i1 %31 to i32
  %33 = sext i32 %32 to i64
  %34 = icmp ne i64 %33, 0
  br i1 %34, label %35, label %50

35:                                               ; preds = %27
  br label %36

36:                                               ; preds = %35
  br label %37

37:                                               ; preds = %36
  br label %38

38:                                               ; preds = %37
  %39 = load i64, ptr @H5E_FUNC_g, align 8
  %40 = load i64, ptr @H5E_CANTINIT_g, align 8
  %41 = call i32 (ptr, ptr, i32, i64, i64, ptr, ...) @H5E_printf_stack(ptr noundef @.str.1, ptr noundef @__func__.H5Pget_data_transform, i32 noundef 1032, i64 noundef %39, i64 noundef %40, ptr noundef @.str.2)
  br label %42

42:                                               ; preds = %38
  store i8 1, ptr %13, align 1
  %43 = load i8, ptr %13, align 1
  %44 = trunc i8 %43 to i1
  %45 = zext i1 %44 to i8
  store i8 %45, ptr %13, align 1
  br label %46

46:                                               ; preds = %42
  br label %47

47:                                               ; preds = %46
  store i64 -1, ptr %11, align 8
  br label %173

48:                                               ; No predecessors!
  br label %49

49:                                               ; preds = %48
  br label %50

50:                                               ; preds = %49, %27
  br label %51

51:                                               ; preds = %50, %20
  %52 = call i32 @H5CX_push()
  %53 = icmp slt i32 %52, 0
  %54 = xor i1 %53, true
  %55 = xor i1 %54, true
  %56 = zext i1 %55 to i32
  %57 = sext i32 %56 to i64
  %58 = icmp ne i64 %57, 0
  br i1 %58, label %59, label %74

59:                                               ; preds = %51
  br label %60

60:                                               ; preds = %59
  br label %61

61:                                               ; preds = %60
  br label %62

62:                                               ; preds = %61
  %63 = load i64, ptr @H5E_FUNC_g, align 8
  %64 = load i64, ptr @H5E_CANTSET_g, align 8
  %65 = call i32 (ptr, ptr, i32, i64, i64, ptr, ...) @H5E_printf_stack(ptr noundef @.str.1, ptr noundef @__func__.H5Pget_data_transform, i32 noundef 1032, i64 noundef %63, i64 noundef %64, ptr noundef @.str.3)
  br label %66

66:                                               ; preds = %62
  store i8 1, ptr %13, align 1
  %67 = load i8, ptr %13, align 1
  %68 = trunc i8 %67 to i1
  %69 = zext i1 %68 to i8
  store i8 %69, ptr %13, align 1
  br label %70

70:                                               ; preds = %66
  br label %71

71:                                               ; preds = %70
  store i64 -1, ptr %11, align 8
  br label %173

72:                                               ; No predecessors!
  br label %73

73:                                               ; preds = %72
  br label %75

74:                                               ; preds = %51
  store i8 1, ptr %12, align 1
  br label %75

75:                                               ; preds = %74, %73
  %76 = call i32 @H5E_clear_stack()
  %77 = load i64, ptr %4, align 8
  %78 = load i64, ptr @H5P_CLS_DATASET_XFER_ID_g, align 8
  %79 = call ptr @H5P_object_verify(i64 noundef %77, i64 noundef %78)
  store ptr %79, ptr %7, align 8
  %80 = icmp eq ptr null, %79
  br i1 %80, label %81, label %96

81:                                               ; preds = %75
  br label %82

82:                                               ; preds = %81
  br label %83

83:                                               ; preds = %82
  br label %84

84:                                               ; preds = %83
  %85 = load i64, ptr @H5E_ID_g, align 8
  %86 = load i64, ptr @H5E_BADID_g, align 8
  %87 = call i32 (ptr, ptr, i32, i64, i64, ptr, ...) @H5E_printf_stack(ptr noundef @.str.1, ptr noundef @__func__.H5Pget_data_transform, i32 noundef 1036, i64 noundef %85, i64 noundef %86, ptr noundef @.str.5)
  br label %88

88:                                               ; preds = %84
  store i8 1, ptr %13, align 1
  %89 = load i8, ptr %13, align 1
  %90 = trunc i8 %89 to i1
  %91 = zext i1 %90 to i8
  store i8 %91, ptr %13, align 1
  br label %92

92:                                               ; preds = %88
  br label %93

93:                                               ; preds = %92
  store i64 -1, ptr %11, align 8
  br label %173

94:                                               ; No predecessors!
  br label %95

95:                                               ; preds = %94
  br label %96

96:                                               ; preds = %95, %75
  %97 = load ptr, ptr %7, align 8
  %98 = call i32 @H5P_peek(ptr noundef %97, ptr noundef @.str.6, ptr noundef %8)
  %99 = icmp slt i32 %98, 0
  br i1 %99, label %100, label %115

100:                                              ; preds = %96
  br label %101

101:                                              ; preds = %100
  br label %102

102:                                              ; preds = %101
  br label %103

103:                                              ; preds = %102
  %104 = load i64, ptr @H5E_PLIST_g, align 8
  %105 = load i64, ptr @H5E_CANTGET_g, align 8
  %106 = call i32 (ptr, ptr, i32, i64, i64, ptr, ...) @H5E_printf_stack(ptr noundef @.str.1, ptr noundef @__func__.H5Pget_data_transform, i32 noundef 1039, i64 noundef %104, i64 noundef %105, ptr noundef @.str.7)
  br label %107

107:                                              ; preds = %103
  store i8 1, ptr %13, align 1
  %108 = load i8, ptr %13, align 1
  %109 = trunc i8 %108 to i1
  %110 = zext i1 %109 to i8
  store i8 %110, ptr %13, align 1
  br label %111

111:                                              ; preds = %107
  br label %112

112:                                              ; preds = %111
  store i64 -1, ptr %11, align 8
  br label %173

113:                                              ; No predecessors!
  br label %114

114:                                              ; preds = %113
  br label %115

115:                                              ; preds = %114, %96
  %116 = load ptr, ptr %8, align 8
  %117 = icmp eq ptr null, %116
  br i1 %117, label %118, label %133

118:                                              ; preds = %115
  br label %119

119:                                              ; preds = %118
  br label %120

120:                                              ; preds = %119
  br label %121

121:                                              ; preds = %120
  %122 = load i64, ptr @H5E_PLIST_g, align 8
  %123 = load i64, ptr @H5E_BADVALUE_g, align 8
  %124 = call i32 (ptr, ptr, i32, i64, i64, ptr, ...) @H5E_printf_stack(ptr noundef @.str.1, ptr noundef @__func__.H5Pget_data_transform, i32 noundef 1042, i64 noundef %122, i64 noundef %123, ptr noundef @.str.11)
  br label %125

125:                                              ; preds = %121
  store i8 1, ptr %13, align 1
  %126 = load i8, ptr %13, align 1
  %127 = trunc i8 %126 to i1
  %128 = zext i1 %127 to i8
  store i8 %128, ptr %13, align 1
  br label %129

129:                                              ; preds = %125
  br label %130

130:                                              ; preds = %129
  store i64 -1, ptr %11, align 8
  br label %173

131:                                              ; No predecessors!
  br label %132

132:                                              ; preds = %131
  br label %133

133:                                              ; preds = %132, %115
  %134 = load ptr, ptr %8, align 8
  %135 = call ptr @H5Z_xform_extract_xform_str(ptr noundef %134)
  store ptr %135, ptr %10, align 8
  %136 = icmp eq ptr null, %135
  br i1 %136, label %137, label %152

137:                                              ; preds = %133
  br label %138

138:                                              ; preds = %137
  br label %139

139:                                              ; preds = %138
  br label %140

140:                                              ; preds = %139
  %141 = load i64, ptr @H5E_PLIST_g, align 8
  %142 = load i64, ptr @H5E_CANTGET_g, align 8
  %143 = call i32 (ptr, ptr, i32, i64, i64, ptr, ...) @H5E_printf_stack(ptr noundef @.str.1, ptr noundef @__func__.H5Pget_data_transform, i32 noundef 1046, i64 noundef %141, i64 noundef %142, ptr noundef @.str.12)
  br label %144

144:                                              ; preds = %140
  store i8 1, ptr %13, align 1
  %145 = load i8, ptr %13, align 1
  %146 = trunc i8 %145 to i1
  %147 = zext i1 %146 to i8
  store i8 %147, ptr %13, align 1
  br label %148

148:                                              ; preds = %144
  br label %149

149:                                              ; preds = %148
  store i64 -1, ptr %11, align 8
  br label %173

150:                                              ; No predecessors!
  br label %151

151:                                              ; preds = %150
  br label %152

152:                                              ; preds = %151, %133
  %153 = load ptr, ptr %10, align 8
  %154 = call i64 @strlen(ptr noundef %153) #5
  store i64 %154, ptr %9, align 8
  %155 = load ptr, ptr %5, align 8
  %156 = icmp ne ptr %155, null
  br i1 %156, label %157, label %171

157:                                              ; preds = %152
  %158 = load ptr, ptr %5, align 8
  %159 = load ptr, ptr %10, align 8
  %160 = load i64, ptr %6, align 8
  %161 = call ptr @strncpy(ptr noundef %158, ptr noundef %159, i64 noundef %160) #6
  %162 = load i64, ptr %9, align 8
  %163 = load i64, ptr %6, align 8
  %164 = icmp uge i64 %162, %163
  br i1 %164, label %165, label %170

165:                                              ; preds = %157
  %166 = load ptr, ptr %5, align 8
  %167 = load i64, ptr %6, align 8
  %168 = sub i64 %167, 1
  %169 = getelementptr inbounds i8, ptr %166, i64 %168
  store i8 0, ptr %169, align 1
  br label %170

170:                                              ; preds = %165, %157
  br label %171

171:                                              ; preds = %170, %152
  %172 = load i64, ptr %9, align 8
  store i64 %172, ptr %11, align 8
  br label %173

173:                                              ; preds = %171, %149, %130, %112, %93, %71, %47
  %174 = load i8, ptr %12, align 1
  %175 = trunc i8 %174 to i1
  %176 = xor i1 %175, true
  %177 = xor i1 %176, true
  %178 = zext i1 %177 to i32
  %179 = sext i32 %178 to i64
  %180 = icmp ne i64 %179, 0
  br i1 %180, label %181, label %183

181:                                              ; preds = %173
  %182 = call i32 @H5CX_pop(i1 noundef zeroext true)
  store i8 0, ptr %12, align 1
  br label %183

183:                                              ; preds = %181, %173
  %184 = load i8, ptr %13, align 1
  %185 = trunc i8 %184 to i1
  %186 = xor i1 %185, true
  %187 = xor i1 %186, true
  %188 = zext i1 %187 to i32
  %189 = sext i32 %188 to i64
  %190 = icmp ne i64 %189, 0
  br i1 %190, label %191, label %193

191:                                              ; preds = %183
  %192 = call i32 @H5E_dump_api_stack()
  br label %193

193:                                              ; preds = %191, %183
  %194 = load i64, ptr %11, align 8
  ret i64 %194
}