; Function Attrs: nounwind uwtable
define i64 @H5Pget_data_transform(i64 noundef %0, ptr noundef %1, i64 noundef %2) local_unnamed_addr #0 {
  %4 = alloca ptr, align 8
  store ptr null, ptr %4, align 8
  %5 = load i8, ptr @H5_libinit_g, align 1
  %6 = trunc i8 %5 to i1
  %7 = load i8, ptr @H5_libterm_g, align 1
  %8 = trunc i8 %7 to i1
  %9 = select i1 %6, i1 true, i1 %8
  br i1 %9, label %17, label %10

10:                                               ; preds = %3
  %11 = tail call i32 @H5_init_library() #8
  %12 = icmp slt i32 %11, 0
  br i1 %12, label %13, label %17

13:                                               ; preds = %10
  %14 = load i64, ptr @H5E_FUNC_g, align 8
  %15 = load i64, ptr @H5E_CANTINIT_g, align 8
  %16 = tail call i32 (ptr, ptr, i32, i64, i64, ptr, ...) @H5E_printf_stack(ptr noundef nonnull @.str.1, ptr noundef nonnull @__func__.H5Pget_data_transform, i32 noundef 1032, i64 noundef %14, i64 noundef %15, ptr noundef nonnull @.str.2) #8
  br label %.thread36

17:                                               ; preds = %10, %3
  %18 = tail call i32 @H5CX_push() #8
  %19 = icmp slt i32 %18, 0
  br i1 %19, label %20, label %24

20:                                               ; preds = %17
  %21 = load i64, ptr @H5E_FUNC_g, align 8
  %22 = load i64, ptr @H5E_CANTSET_g, align 8
  %23 = tail call i32 (ptr, ptr, i32, i64, i64, ptr, ...) @H5E_printf_stack(ptr noundef nonnull @.str.1, ptr noundef nonnull @__func__.H5Pget_data_transform, i32 noundef 1032, i64 noundef %21, i64 noundef %22, ptr noundef nonnull @.str.3) #8
  br label %.thread36

24:                                               ; preds = %17
  %25 = tail call i32 @H5E_clear_stack() #8
  %26 = load i64, ptr @H5P_CLS_DATASET_XFER_ID_g, align 8
  %27 = tail call ptr @H5P_object_verify(i64 noundef %0, i64 noundef %26) #8
  %28 = icmp eq ptr %27, null
  br i1 %28, label %29, label %33

29:                                               ; preds = %24
  %30 = load i64, ptr @H5E_ID_g, align 8
  %31 = load i64, ptr @H5E_BADID_g, align 8
  %32 = tail call i32 (ptr, ptr, i32, i64, i64, ptr, ...) @H5E_printf_stack(ptr noundef nonnull @.str.1, ptr noundef nonnull @__func__.H5Pget_data_transform, i32 noundef 1036, i64 noundef %30, i64 noundef %31, ptr noundef nonnull @.str.5) #8
  br label %.thread42

33:                                               ; preds = %24
  %34 = call i32 @H5P_peek(ptr noundef nonnull %27, ptr noundef nonnull @.str.6, ptr noundef nonnull %4) #8
  %35 = icmp slt i32 %34, 0
  br i1 %35, label %36, label %40

36:                                               ; preds = %33
  %37 = load i64, ptr @H5E_PLIST_g, align 8
  %38 = load i64, ptr @H5E_CANTGET_g, align 8
  %39 = call i32 (ptr, ptr, i32, i64, i64, ptr, ...) @H5E_printf_stack(ptr noundef nonnull @.str.1, ptr noundef nonnull @__func__.H5Pget_data_transform, i32 noundef 1039, i64 noundef %37, i64 noundef %38, ptr noundef nonnull @.str.7) #8
  br label %.thread42

40:                                               ; preds = %33
  %41 = load ptr, ptr %4, align 8
  %42 = icmp eq ptr %41, null
  br i1 %42, label %43, label %47

43:                                               ; preds = %40
  %44 = load i64, ptr @H5E_PLIST_g, align 8
  %45 = load i64, ptr @H5E_BADVALUE_g, align 8
  %46 = call i32 (ptr, ptr, i32, i64, i64, ptr, ...) @H5E_printf_stack(ptr noundef nonnull @.str.1, ptr noundef nonnull @__func__.H5Pget_data_transform, i32 noundef 1042, i64 noundef %44, i64 noundef %45, ptr noundef nonnull @.str.11) #8
  br label %.thread42

47:                                               ; preds = %40
  %48 = call ptr @H5Z_xform_extract_xform_str(ptr noundef nonnull %41) #8
  %49 = icmp eq ptr %48, null
  br i1 %49, label %50, label %54

50:                                               ; preds = %47
  %51 = load i64, ptr @H5E_PLIST_g, align 8
  %52 = load i64, ptr @H5E_CANTGET_g, align 8
  %53 = call i32 (ptr, ptr, i32, i64, i64, ptr, ...) @H5E_printf_stack(ptr noundef nonnull @.str.1, ptr noundef nonnull @__func__.H5Pget_data_transform, i32 noundef 1046, i64 noundef %51, i64 noundef %52, ptr noundef nonnull @.str.12) #8
  br label %.thread42

54:                                               ; preds = %47
  %55 = call i64 @strlen(ptr noundef nonnull dereferenceable(1) %48) #9
  %.not = icmp eq ptr %1, null
  br i1 %.not, label %62, label %56

56:                                               ; preds = %54
  %57 = call ptr @strncpy(ptr noundef nonnull %1, ptr noundef nonnull %48, i64 noundef %2) #8
  %.not27 = icmp ult i64 %55, %2
  br i1 %.not27, label %62, label %58

58:                                               ; preds = %56
  %59 = getelementptr i8, ptr %1, i64 %2
  %60 = getelementptr i8, ptr %59, i64 -1
  store i8 0, ptr %60, align 1
  br label %62

.thread42:                                        ; preds = %50, %43, %36, %29
  %61 = call i32 @H5CX_pop(i1 noundef zeroext true) #8
  br label %.thread36

62:                                               ; preds = %54, %58, %56
  %63 = call i32 @H5CX_pop(i1 noundef zeroext true) #8
  br label %65

.thread36:                                        ; preds = %20, %13, %.thread42
  %64 = call i32 @H5E_dump_api_stack() #8
  br label %65

65:                                               ; preds = %62, %.thread36
  %.0213139 = phi i64 [ -1, %.thread36 ], [ %55, %62 ]
  ret i64 %.0213139
}